
handcrafted/spectreRSB.riscv:     file format elf64-littleriscv


Disassembly of section .text:

0000000080000000 <context_1>:
    80000000:	00001417          	auipc	s0,0x1
    80000004:	00040413          	mv	s0,s0
    80000008:	00001497          	auipc	s1,0x1
    8000000c:	07848493          	addi	s1,s1,120 # 80001080 <arr2>
    80000010:	4521                	li	a0,8
    80000012:	0001                	nop
    80000014:	008000ef          	jal	ra,8000001c <spec_code>
    80000018:	018000ef          	jal	ra,80000030 <context_switch>

000000008000001c <spec_code>:
    8000001c:	00a482b3          	add	t0,s1,a0
    80000020:	0002b283          	ld	t0,0(t0)
    80000024:	8082                	ret
    80000026:	00000013          	nop
    8000002a:	00000013          	nop
    8000002e:	0001                	nop

0000000080000030 <context_switch>:
    80000030:	00040503          	lb	a0,0(s0) # 80001000 <arr>
    80000034:	0ff57513          	andi	a0,a0,255
    80000038:	00000097          	auipc	ra,0x0
    8000003c:	0c808093          	addi	ra,ra,200 # 80000100 <context_2>
    80000040:	4299                	li	t0,6
    80000042:	025080b3          	mul	ra,ra,t0
    80000046:	0250c0b3          	div	ra,ra,t0
    8000004a:	025080b3          	mul	ra,ra,t0
    8000004e:	0250c0b3          	div	ra,ra,t0
    80000052:	8082                	ret
    80000054:	00000013          	nop
    80000058:	00000013          	nop
    8000005c:	00000013          	nop
    80000060:	00000013          	nop
    80000064:	00000013          	nop
    80000068:	00000013          	nop
    8000006c:	00000013          	nop
    80000070:	00000013          	nop
    80000074:	00000013          	nop
    80000078:	00000013          	nop
    8000007c:	00000013          	nop
    80000080:	00000013          	nop
    80000084:	00000013          	nop
    80000088:	00000013          	nop
    8000008c:	00000013          	nop
    80000090:	00000013          	nop
    80000094:	00000013          	nop
    80000098:	00000013          	nop
    8000009c:	00000013          	nop
    800000a0:	00000013          	nop
    800000a4:	00000013          	nop
    800000a8:	00000013          	nop
    800000ac:	00000013          	nop
    800000b0:	00000013          	nop
    800000b4:	00000013          	nop
    800000b8:	00000013          	nop
    800000bc:	00000013          	nop
    800000c0:	00000013          	nop
    800000c4:	00000013          	nop
    800000c8:	00000013          	nop
    800000cc:	00000013          	nop
    800000d0:	00000013          	nop
    800000d4:	00000013          	nop
    800000d8:	00000013          	nop
    800000dc:	00000013          	nop
    800000e0:	00000013          	nop
    800000e4:	00000013          	nop
    800000e8:	00000013          	nop
    800000ec:	00000013          	nop
    800000f0:	00000013          	nop
    800000f4:	00000013          	nop
    800000f8:	00000013          	nop
    800000fc:	00000013          	nop

0000000080000100 <context_2>:
    80000100:	0505                	addi	a0,a0,1
    80000102:	00a40023          	sb	a0,0(s0)
    80000106:	0000                	unimp
    80000108:	0000                	unimp
    8000010a:	0000                	unimp
    8000010c:	0000                	unimp
    8000010e:	0000                	unimp
    80000110:	0000                	unimp
    80000112:	0000                	unimp
    80000114:	0000                	unimp
    80000116:	0000                	unimp
    80000118:	0000                	unimp
    8000011a:	0000                	unimp
    8000011c:	0000                	unimp
    8000011e:	0000                	unimp
    80000120:	0000                	unimp
    80000122:	0000                	unimp
    80000124:	0000                	unimp
    80000126:	0000                	unimp
    80000128:	0000                	unimp
    8000012a:	0000                	unimp
    8000012c:	0000                	unimp
    8000012e:	0000                	unimp
    80000130:	0000                	unimp
    80000132:	0000                	unimp
    80000134:	0000                	unimp
    80000136:	0000                	unimp
    80000138:	0000                	unimp
    8000013a:	0000                	unimp
    8000013c:	0000                	unimp
    8000013e:	0000                	unimp
    80000140:	0000                	unimp
    80000142:	0000                	unimp
    80000144:	0000                	unimp
    80000146:	0000                	unimp
    80000148:	0000                	unimp
    8000014a:	0000                	unimp
    8000014c:	0000                	unimp
    8000014e:	0000                	unimp
    80000150:	0000                	unimp
    80000152:	0000                	unimp
    80000154:	0000                	unimp
    80000156:	0000                	unimp
    80000158:	0000                	unimp
    8000015a:	0000                	unimp
    8000015c:	0000                	unimp
    8000015e:	0000                	unimp
    80000160:	0000                	unimp
    80000162:	0000                	unimp
    80000164:	0000                	unimp
    80000166:	0000                	unimp
    80000168:	0000                	unimp
    8000016a:	0000                	unimp
    8000016c:	0000                	unimp
    8000016e:	0000                	unimp
    80000170:	0000                	unimp
    80000172:	0000                	unimp
    80000174:	0000                	unimp
    80000176:	0000                	unimp
    80000178:	0000                	unimp
    8000017a:	0000                	unimp
    8000017c:	0000                	unimp
    8000017e:	0000                	unimp
    80000180:	0000                	unimp
    80000182:	0000                	unimp
    80000184:	0000                	unimp
    80000186:	0000                	unimp
    80000188:	0000                	unimp
    8000018a:	0000                	unimp
    8000018c:	0000                	unimp
    8000018e:	0000                	unimp
    80000190:	0000                	unimp
    80000192:	0000                	unimp
    80000194:	0000                	unimp
    80000196:	0000                	unimp
    80000198:	0000                	unimp
    8000019a:	0000                	unimp
    8000019c:	0000                	unimp
    8000019e:	0000                	unimp
    800001a0:	0000                	unimp
