
handcrafted/spectrev2.riscv:     file format elf64-littleriscv


Disassembly of section .text:

0000000080000000 <setup>:
    80000000:	00001417          	auipc	s0,0x1
    80000004:	00040413          	mv	s0,s0
    80000008:	00000297          	auipc	t0,0x0
    8000000c:	07828293          	addi	t0,t0,120 # 80000080 <legit_target>
    80000010:	00543023          	sd	t0,0(s0) # 80001000 <jump_table>
    80000014:	00000297          	auipc	t0,0x0
    80000018:	07c28293          	addi	t0,t0,124 # 80000090 <leak_target>
    8000001c:	00543823          	sd	t0,16(s0)
    80000020:	0ff0000f          	fence

0000000080000024 <attacker>:
    80000024:	4541                	li	a0,16
    80000026:	00001597          	auipc	a1,0x1
    8000002a:	01a58593          	addi	a1,a1,26 # 80001040 <arr>
    8000002e:	0001                	nop
    80000030:	020000ef          	jal	ra,80000050 <victim>
    80000034:	4501                	li	a0,0
    80000036:	00001597          	auipc	a1,0x1
    8000003a:	00a58593          	addi	a1,a1,10 # 80001040 <arr>
    8000003e:	10058593          	addi	a1,a1,256
    80000042:	0001                	nop
    80000044:	00c000ef          	jal	ra,80000050 <victim>
    80000048:	0000                	unimp
    8000004a:	00000013          	nop
    8000004e:	0001                	nop

0000000080000050 <victim>:
    80000050:	8486                	mv	s1,ra
    80000052:	00001297          	auipc	t0,0x1
    80000056:	fae28293          	addi	t0,t0,-82 # 80001000 <jump_table>
    8000005a:	92aa                	add	t0,t0,a0
    8000005c:	0002b303          	ld	t1,0(t0)
    80000060:	4399                	li	t2,6
    80000062:	02730333          	mul	t1,t1,t2
    80000066:	02734333          	div	t1,t1,t2
    8000006a:	02730333          	mul	t1,t1,t2
    8000006e:	02734333          	div	t1,t1,t2
    80000072:	0001                	nop
    80000074:	000300e7          	jalr	t1
    80000078:	80a6                	mv	ra,s1
    8000007a:	8082                	ret
    8000007c:	00000013          	nop

0000000080000080 <legit_target>:
    80000080:	8082                	ret
    80000082:	0001                	nop
    80000084:	00000013          	nop
    80000088:	00000013          	nop
    8000008c:	00000013          	nop

0000000080000090 <leak_target>:
    80000090:	0005a283          	lw	t0,0(a1)
    80000094:	8082                	ret
