
build/add.riscv:     file format elf64-littleriscv


Disassembly of section .text:

0000000080000000 <end-0x210>:
    80000000:	00000517          	auipc	a0,0x0
    80000004:	00053283          	ld	t0,0(a0) # 80000000 <end-0x210>
    80000008:	0515                	addi	a0,a0,5
    8000000a:	00d605b3          	add	a1,a2,a3
    8000000e:	0000                	unimp
    80000010:	0000                	unimp
    80000012:	0000                	unimp
    80000014:	0000                	unimp
    80000016:	0000                	unimp
    80000018:	0000                	unimp
    8000001a:	0000                	unimp
    8000001c:	0000                	unimp
    8000001e:	0000                	unimp
    80000020:	0000                	unimp
    80000022:	0000                	unimp
    80000024:	0000                	unimp
    80000026:	0000                	unimp
    80000028:	0000                	unimp
    8000002a:	0000                	unimp
    8000002c:	0000                	unimp
    8000002e:	0000                	unimp
    80000030:	0000                	unimp
    80000032:	0000                	unimp
    80000034:	0000                	unimp
    80000036:	0000                	unimp
    80000038:	0000                	unimp
    8000003a:	0000                	unimp
    8000003c:	0000                	unimp
    8000003e:	0000                	unimp
    80000040:	0000                	unimp
    80000042:	0000                	unimp
    80000044:	0000                	unimp
    80000046:	0000                	unimp
    80000048:	0000                	unimp
    8000004a:	0000                	unimp
    8000004c:	0000                	unimp
    8000004e:	0000                	unimp
    80000050:	0000                	unimp
    80000052:	0000                	unimp
    80000054:	0000                	unimp
    80000056:	0000                	unimp
    80000058:	0000                	unimp
    8000005a:	0000                	unimp
    8000005c:	0000                	unimp
    8000005e:	0000                	unimp
    80000060:	0000                	unimp
    80000062:	0000                	unimp
    80000064:	0000                	unimp
    80000066:	0000                	unimp
    80000068:	0000                	unimp
    8000006a:	0000                	unimp
    8000006c:	0000                	unimp
    8000006e:	0000                	unimp
    80000070:	0000                	unimp
    80000072:	0000                	unimp
    80000074:	0000                	unimp
    80000076:	0000                	unimp
    80000078:	0000                	unimp
    8000007a:	0000                	unimp
    8000007c:	0000                	unimp
    8000007e:	0000                	unimp
    80000080:	0000                	unimp
    80000082:	0000                	unimp
    80000084:	0000                	unimp
    80000086:	0000                	unimp
    80000088:	0000                	unimp
    8000008a:	0000                	unimp
    8000008c:	0000                	unimp
    8000008e:	0000                	unimp
    80000090:	0000                	unimp
    80000092:	0000                	unimp
    80000094:	0000                	unimp
    80000096:	0000                	unimp
    80000098:	0000                	unimp
    8000009a:	0000                	unimp
    8000009c:	0000                	unimp
    8000009e:	0000                	unimp
    800000a0:	0000                	unimp
    800000a2:	0000                	unimp
    800000a4:	0000                	unimp
    800000a6:	0000                	unimp
    800000a8:	0000                	unimp
    800000aa:	0000                	unimp
    800000ac:	0000                	unimp
    800000ae:	0000                	unimp
    800000b0:	0000                	unimp
    800000b2:	0000                	unimp
    800000b4:	0000                	unimp
    800000b6:	0000                	unimp
    800000b8:	0000                	unimp
    800000ba:	0000                	unimp
    800000bc:	0000                	unimp
    800000be:	0000                	unimp
    800000c0:	0000                	unimp
    800000c2:	0000                	unimp
    800000c4:	0000                	unimp
    800000c6:	0000                	unimp
    800000c8:	0000                	unimp
    800000ca:	0000                	unimp
    800000cc:	0000                	unimp
    800000ce:	0000                	unimp
    800000d0:	0000                	unimp
    800000d2:	0000                	unimp
    800000d4:	0000                	unimp
    800000d6:	0000                	unimp
    800000d8:	0000                	unimp
    800000da:	0000                	unimp
    800000dc:	0000                	unimp
    800000de:	0000                	unimp
    800000e0:	0000                	unimp
    800000e2:	0000                	unimp
    800000e4:	0000                	unimp
    800000e6:	0000                	unimp
    800000e8:	0000                	unimp
    800000ea:	0000                	unimp
    800000ec:	0000                	unimp
    800000ee:	0000                	unimp
    800000f0:	0000                	unimp
    800000f2:	0000                	unimp
    800000f4:	0000                	unimp
    800000f6:	0000                	unimp
    800000f8:	0000                	unimp
    800000fa:	0000                	unimp
    800000fc:	0000                	unimp
    800000fe:	0000                	unimp
    80000100:	0000                	unimp
    80000102:	0000                	unimp
    80000104:	0000                	unimp
    80000106:	0000                	unimp
    80000108:	0000                	unimp
    8000010a:	0000                	unimp
    8000010c:	0000                	unimp
    8000010e:	0000                	unimp
    80000110:	0000                	unimp
    80000112:	0000                	unimp
    80000114:	0000                	unimp
    80000116:	0000                	unimp
    80000118:	0000                	unimp
    8000011a:	0000                	unimp
    8000011c:	0000                	unimp
    8000011e:	0000                	unimp
    80000120:	0000                	unimp
    80000122:	0000                	unimp
    80000124:	0000                	unimp
    80000126:	0000                	unimp
    80000128:	0000                	unimp
    8000012a:	0000                	unimp
    8000012c:	0000                	unimp
    8000012e:	0000                	unimp
    80000130:	0000                	unimp
    80000132:	0000                	unimp
    80000134:	0000                	unimp
    80000136:	0000                	unimp
    80000138:	0000                	unimp
    8000013a:	0000                	unimp
    8000013c:	0000                	unimp
    8000013e:	0000                	unimp
    80000140:	0000                	unimp
    80000142:	0000                	unimp
    80000144:	0000                	unimp
    80000146:	0000                	unimp
    80000148:	0000                	unimp
    8000014a:	0000                	unimp
    8000014c:	0000                	unimp
    8000014e:	0000                	unimp
    80000150:	0000                	unimp
    80000152:	0000                	unimp
    80000154:	0000                	unimp
    80000156:	0000                	unimp
    80000158:	0000                	unimp
    8000015a:	0000                	unimp
    8000015c:	0000                	unimp
    8000015e:	0000                	unimp
    80000160:	0000                	unimp
    80000162:	0000                	unimp
    80000164:	0000                	unimp
    80000166:	0000                	unimp
    80000168:	0000                	unimp
    8000016a:	0000                	unimp
    8000016c:	0000                	unimp
    8000016e:	0000                	unimp
    80000170:	0000                	unimp
    80000172:	0000                	unimp
    80000174:	0000                	unimp
    80000176:	0000                	unimp
    80000178:	0000                	unimp
    8000017a:	0000                	unimp
    8000017c:	0000                	unimp
    8000017e:	0000                	unimp
    80000180:	0000                	unimp
    80000182:	0000                	unimp
    80000184:	0000                	unimp
    80000186:	0000                	unimp
    80000188:	0000                	unimp
    8000018a:	0000                	unimp
    8000018c:	0000                	unimp
    8000018e:	0000                	unimp
    80000190:	0000                	unimp
    80000192:	0000                	unimp
    80000194:	0000                	unimp
    80000196:	0000                	unimp
    80000198:	0000                	unimp
    8000019a:	0000                	unimp
    8000019c:	0000                	unimp
    8000019e:	0000                	unimp
    800001a0:	0000                	unimp
    800001a2:	0000                	unimp
    800001a4:	0000                	unimp
    800001a6:	0000                	unimp
    800001a8:	0000                	unimp
    800001aa:	0000                	unimp
    800001ac:	0000                	unimp
    800001ae:	0000                	unimp
    800001b0:	0000                	unimp
    800001b2:	0000                	unimp
    800001b4:	0000                	unimp
    800001b6:	0000                	unimp
    800001b8:	0000                	unimp
    800001ba:	0000                	unimp
    800001bc:	0000                	unimp
    800001be:	0000                	unimp
    800001c0:	0000                	unimp
    800001c2:	0000                	unimp
    800001c4:	0000                	unimp
    800001c6:	0000                	unimp
    800001c8:	0000                	unimp
    800001ca:	0000                	unimp
    800001cc:	0000                	unimp
    800001ce:	0000                	unimp
    800001d0:	0000                	unimp
    800001d2:	0000                	unimp
    800001d4:	0000                	unimp
    800001d6:	0000                	unimp
    800001d8:	0000                	unimp
    800001da:	0000                	unimp
    800001dc:	0000                	unimp
    800001de:	0000                	unimp
    800001e0:	0000                	unimp
    800001e2:	0000                	unimp
    800001e4:	0000                	unimp
    800001e6:	0000                	unimp
    800001e8:	0000                	unimp
    800001ea:	0000                	unimp
    800001ec:	0000                	unimp
    800001ee:	0000                	unimp
    800001f0:	0000                	unimp
    800001f2:	0000                	unimp
    800001f4:	0000                	unimp
    800001f6:	0000                	unimp
    800001f8:	0000                	unimp
    800001fa:	0000                	unimp
    800001fc:	0000                	unimp
    800001fe:	0000                	unimp
    80000200:	0000                	unimp
    80000202:	0000                	unimp
    80000204:	0000                	unimp
    80000206:	0000                	unimp
    80000208:	0000                	unimp
    8000020a:	0000                	unimp
    8000020c:	0000                	unimp
    8000020e:	0000                	unimp

0000000080000210 <end>:
    80000210:	0000                	unimp
