
build/single_load.riscv:     file format elf64-littleriscv


Disassembly of section .text:

0000000080000000 <end-0x300>:
    80000000:	000802b7          	lui	t0,0x80
    80000004:	0012829b          	addiw	t0,t0,1
    80000008:	00c29293          	slli	t0,t0,0xc
    8000000c:	0002b283          	ld	t0,0(t0) # 80000 <end-0x7ff80300>
    80000010:	0000                	unimp
    80000012:	0000                	unimp
    80000014:	0000                	unimp
    80000016:	0000                	unimp
    80000018:	0000                	unimp
    8000001a:	0000                	unimp
    8000001c:	0000                	unimp
    8000001e:	0000                	unimp
    80000020:	0000                	unimp
    80000022:	0000                	unimp
    80000024:	0000                	unimp
    80000026:	0000                	unimp
    80000028:	0000                	unimp
    8000002a:	0000                	unimp
    8000002c:	0000                	unimp
    8000002e:	0000                	unimp
    80000030:	0000                	unimp
    80000032:	0000                	unimp
    80000034:	0000                	unimp
    80000036:	0000                	unimp
    80000038:	0000                	unimp
    8000003a:	0000                	unimp
    8000003c:	0000                	unimp
    8000003e:	0000                	unimp
    80000040:	0000                	unimp
    80000042:	0000                	unimp
    80000044:	0000                	unimp
    80000046:	0000                	unimp
    80000048:	0000                	unimp
    8000004a:	0000                	unimp
    8000004c:	0000                	unimp
    8000004e:	0000                	unimp
    80000050:	0000                	unimp
    80000052:	0000                	unimp
    80000054:	0000                	unimp
    80000056:	0000                	unimp
    80000058:	0000                	unimp
    8000005a:	0000                	unimp
    8000005c:	0000                	unimp
    8000005e:	0000                	unimp
    80000060:	0000                	unimp
    80000062:	0000                	unimp
    80000064:	0000                	unimp
    80000066:	0000                	unimp
    80000068:	0000                	unimp
    8000006a:	0000                	unimp
    8000006c:	0000                	unimp
    8000006e:	0000                	unimp
    80000070:	0000                	unimp
    80000072:	0000                	unimp
    80000074:	0000                	unimp
    80000076:	0000                	unimp
    80000078:	0000                	unimp
    8000007a:	0000                	unimp
    8000007c:	0000                	unimp
    8000007e:	0000                	unimp
    80000080:	0000                	unimp
    80000082:	0000                	unimp
    80000084:	0000                	unimp
    80000086:	0000                	unimp
    80000088:	0000                	unimp
    8000008a:	0000                	unimp
    8000008c:	0000                	unimp
    8000008e:	0000                	unimp
    80000090:	0000                	unimp
    80000092:	0000                	unimp
    80000094:	0000                	unimp
    80000096:	0000                	unimp
    80000098:	0000                	unimp
    8000009a:	0000                	unimp
    8000009c:	0000                	unimp
    8000009e:	0000                	unimp
    800000a0:	0000                	unimp
    800000a2:	0000                	unimp
    800000a4:	0000                	unimp
    800000a6:	0000                	unimp
    800000a8:	0000                	unimp
    800000aa:	0000                	unimp
    800000ac:	0000                	unimp
    800000ae:	0000                	unimp
    800000b0:	0000                	unimp
    800000b2:	0000                	unimp
    800000b4:	0000                	unimp
    800000b6:	0000                	unimp
    800000b8:	0000                	unimp
    800000ba:	0000                	unimp
    800000bc:	0000                	unimp
    800000be:	0000                	unimp
    800000c0:	0000                	unimp
    800000c2:	0000                	unimp
    800000c4:	0000                	unimp
    800000c6:	0000                	unimp
    800000c8:	0000                	unimp
    800000ca:	0000                	unimp
    800000cc:	0000                	unimp
    800000ce:	0000                	unimp
    800000d0:	0000                	unimp
    800000d2:	0000                	unimp
    800000d4:	0000                	unimp
    800000d6:	0000                	unimp
    800000d8:	0000                	unimp
    800000da:	0000                	unimp
    800000dc:	0000                	unimp
    800000de:	0000                	unimp
    800000e0:	0000                	unimp
    800000e2:	0000                	unimp
    800000e4:	0000                	unimp
    800000e6:	0000                	unimp
    800000e8:	0000                	unimp
    800000ea:	0000                	unimp
    800000ec:	0000                	unimp
    800000ee:	0000                	unimp
    800000f0:	0000                	unimp
    800000f2:	0000                	unimp
    800000f4:	0000                	unimp
    800000f6:	0000                	unimp
    800000f8:	0000                	unimp
    800000fa:	0000                	unimp
    800000fc:	0000                	unimp
    800000fe:	0000                	unimp
    80000100:	0000                	unimp
    80000102:	0000                	unimp
    80000104:	0000                	unimp
    80000106:	0000                	unimp
    80000108:	0000                	unimp
    8000010a:	0000                	unimp
    8000010c:	0000                	unimp
    8000010e:	0000                	unimp
    80000110:	0000                	unimp
    80000112:	0000                	unimp
    80000114:	0000                	unimp
    80000116:	0000                	unimp
    80000118:	0000                	unimp
    8000011a:	0000                	unimp
    8000011c:	0000                	unimp
    8000011e:	0000                	unimp
    80000120:	0000                	unimp
    80000122:	0000                	unimp
    80000124:	0000                	unimp
    80000126:	0000                	unimp
    80000128:	0000                	unimp
    8000012a:	0000                	unimp
    8000012c:	0000                	unimp
    8000012e:	0000                	unimp
    80000130:	0000                	unimp
    80000132:	0000                	unimp
    80000134:	0000                	unimp
    80000136:	0000                	unimp
    80000138:	0000                	unimp
    8000013a:	0000                	unimp
    8000013c:	0000                	unimp
    8000013e:	0000                	unimp
    80000140:	0000                	unimp
    80000142:	0000                	unimp
    80000144:	0000                	unimp
    80000146:	0000                	unimp
    80000148:	0000                	unimp
    8000014a:	0000                	unimp
    8000014c:	0000                	unimp
    8000014e:	0000                	unimp
    80000150:	0000                	unimp
    80000152:	0000                	unimp
    80000154:	0000                	unimp
    80000156:	0000                	unimp
    80000158:	0000                	unimp
    8000015a:	0000                	unimp
    8000015c:	0000                	unimp
    8000015e:	0000                	unimp
    80000160:	0000                	unimp
    80000162:	0000                	unimp
    80000164:	0000                	unimp
    80000166:	0000                	unimp
    80000168:	0000                	unimp
    8000016a:	0000                	unimp
    8000016c:	0000                	unimp
    8000016e:	0000                	unimp
    80000170:	0000                	unimp
    80000172:	0000                	unimp
    80000174:	0000                	unimp
    80000176:	0000                	unimp
    80000178:	0000                	unimp
    8000017a:	0000                	unimp
    8000017c:	0000                	unimp
    8000017e:	0000                	unimp
    80000180:	0000                	unimp
    80000182:	0000                	unimp
    80000184:	0000                	unimp
    80000186:	0000                	unimp
    80000188:	0000                	unimp
    8000018a:	0000                	unimp
    8000018c:	0000                	unimp
    8000018e:	0000                	unimp
    80000190:	0000                	unimp
    80000192:	0000                	unimp
    80000194:	0000                	unimp
    80000196:	0000                	unimp
    80000198:	0000                	unimp
    8000019a:	0000                	unimp
    8000019c:	0000                	unimp
    8000019e:	0000                	unimp
    800001a0:	0000                	unimp
    800001a2:	0000                	unimp
    800001a4:	0000                	unimp
    800001a6:	0000                	unimp
    800001a8:	0000                	unimp
    800001aa:	0000                	unimp
    800001ac:	0000                	unimp
    800001ae:	0000                	unimp
    800001b0:	0000                	unimp
    800001b2:	0000                	unimp
    800001b4:	0000                	unimp
    800001b6:	0000                	unimp
    800001b8:	0000                	unimp
    800001ba:	0000                	unimp
    800001bc:	0000                	unimp
    800001be:	0000                	unimp
    800001c0:	0000                	unimp
    800001c2:	0000                	unimp
    800001c4:	0000                	unimp
    800001c6:	0000                	unimp
    800001c8:	0000                	unimp
    800001ca:	0000                	unimp
    800001cc:	0000                	unimp
    800001ce:	0000                	unimp
    800001d0:	0000                	unimp
    800001d2:	0000                	unimp
    800001d4:	0000                	unimp
    800001d6:	0000                	unimp
    800001d8:	0000                	unimp
    800001da:	0000                	unimp
    800001dc:	0000                	unimp
    800001de:	0000                	unimp
    800001e0:	0000                	unimp
    800001e2:	0000                	unimp
    800001e4:	0000                	unimp
    800001e6:	0000                	unimp
    800001e8:	0000                	unimp
    800001ea:	0000                	unimp
    800001ec:	0000                	unimp
    800001ee:	0000                	unimp
    800001f0:	0000                	unimp
    800001f2:	0000                	unimp
    800001f4:	0000                	unimp
    800001f6:	0000                	unimp
    800001f8:	0000                	unimp
    800001fa:	0000                	unimp
    800001fc:	0000                	unimp
    800001fe:	0000                	unimp
    80000200:	0000                	unimp
    80000202:	0000                	unimp
    80000204:	0000                	unimp
    80000206:	0000                	unimp
    80000208:	0000                	unimp
    8000020a:	0000                	unimp
    8000020c:	0000                	unimp
    8000020e:	0000                	unimp
    80000210:	0000                	unimp
    80000212:	00000013          	nop
    80000216:	00000013          	nop
    8000021a:	00000013          	nop
    8000021e:	00000013          	nop
    80000222:	00000013          	nop
    80000226:	00000013          	nop
    8000022a:	00000013          	nop
    8000022e:	00000013          	nop
    80000232:	00000013          	nop
    80000236:	00000013          	nop
    8000023a:	00000013          	nop
    8000023e:	00000013          	nop
    80000242:	00000013          	nop
    80000246:	00000013          	nop
    8000024a:	00000013          	nop
    8000024e:	00000013          	nop
    80000252:	00000013          	nop
    80000256:	00000013          	nop
    8000025a:	00000013          	nop
    8000025e:	00000013          	nop
    80000262:	00000013          	nop
    80000266:	00000013          	nop
    8000026a:	00000013          	nop
    8000026e:	00000013          	nop
    80000272:	00000013          	nop
    80000276:	00000013          	nop
    8000027a:	00000013          	nop
    8000027e:	00000013          	nop
    80000282:	00000013          	nop
    80000286:	00000013          	nop
    8000028a:	00000013          	nop
    8000028e:	00000013          	nop
    80000292:	00000013          	nop
    80000296:	00000013          	nop
    8000029a:	00000013          	nop
    8000029e:	00000013          	nop
    800002a2:	00000013          	nop
    800002a6:	00000013          	nop
    800002aa:	00000013          	nop
    800002ae:	00000013          	nop
    800002b2:	00000013          	nop
    800002b6:	00000013          	nop
    800002ba:	00000013          	nop
    800002be:	00000013          	nop
    800002c2:	00000013          	nop
    800002c6:	00000013          	nop
    800002ca:	00000013          	nop
    800002ce:	00000013          	nop
    800002d2:	00000013          	nop
    800002d6:	00000013          	nop
    800002da:	00000013          	nop
    800002de:	00000013          	nop
    800002e2:	00000013          	nop
    800002e6:	00000013          	nop
    800002ea:	00000013          	nop
    800002ee:	00000013          	nop
    800002f2:	00000013          	nop
    800002f6:	00000013          	nop
    800002fa:	00000013          	nop
    800002fe:	0001                	nop

0000000080000300 <end>:
    80000300:	0000                	unimp
    80000302:	0000                	unimp
    80000304:	0000                	unimp
    80000306:	0000                	unimp
    80000308:	0000                	unimp
    8000030a:	0000                	unimp
    8000030c:	0000                	unimp
    8000030e:	0000                	unimp
    80000310:	0000                	unimp
    80000312:	0000                	unimp
    80000314:	0000                	unimp
    80000316:	0000                	unimp
    80000318:	0000                	unimp
    8000031a:	0000                	unimp
    8000031c:	0000                	unimp
    8000031e:	0000                	unimp
    80000320:	0000                	unimp
    80000322:	0000                	unimp
    80000324:	0000                	unimp
    80000326:	0000                	unimp
    80000328:	0000                	unimp
    8000032a:	0000                	unimp
    8000032c:	0000                	unimp
    8000032e:	0000                	unimp
    80000330:	0000                	unimp
    80000332:	0000                	unimp
    80000334:	0000                	unimp
    80000336:	0000                	unimp
    80000338:	0000                	unimp
    8000033a:	0000                	unimp
    8000033c:	0000                	unimp
    8000033e:	0000                	unimp
    80000340:	0000                	unimp
    80000342:	0000                	unimp
    80000344:	0000                	unimp
    80000346:	0000                	unimp
    80000348:	0000                	unimp
    8000034a:	0000                	unimp
    8000034c:	0000                	unimp
    8000034e:	0000                	unimp
    80000350:	0000                	unimp
    80000352:	0000                	unimp
    80000354:	0000                	unimp
    80000356:	0000                	unimp
    80000358:	0000                	unimp
    8000035a:	0000                	unimp
    8000035c:	0000                	unimp
    8000035e:	0000                	unimp
    80000360:	0000                	unimp
    80000362:	0000                	unimp
    80000364:	0000                	unimp
    80000366:	0000                	unimp
    80000368:	0000                	unimp
    8000036a:	0000                	unimp
    8000036c:	0000                	unimp
    8000036e:	0000                	unimp
    80000370:	0000                	unimp
    80000372:	0000                	unimp
    80000374:	0000                	unimp
    80000376:	0000                	unimp
    80000378:	0000                	unimp
    8000037a:	0000                	unimp
    8000037c:	0000                	unimp
    8000037e:	0000                	unimp
    80000380:	0000                	unimp
    80000382:	0000                	unimp
    80000384:	0000                	unimp
    80000386:	0000                	unimp
    80000388:	0000                	unimp
    8000038a:	0000                	unimp
    8000038c:	0000                	unimp
    8000038e:	0000                	unimp
    80000390:	0000                	unimp
    80000392:	0000                	unimp
    80000394:	0000                	unimp
    80000396:	0000                	unimp
    80000398:	0000                	unimp
    8000039a:	0000                	unimp
    8000039c:	0000                	unimp
    8000039e:	0000                	unimp
    800003a0:	0000                	unimp
    800003a2:	0000                	unimp
    800003a4:	0000                	unimp
    800003a6:	0000                	unimp
    800003a8:	0000                	unimp
    800003aa:	0000                	unimp
    800003ac:	0000                	unimp
    800003ae:	0000                	unimp
    800003b0:	0000                	unimp
    800003b2:	0000                	unimp
    800003b4:	0000                	unimp
    800003b6:	0000                	unimp
    800003b8:	0000                	unimp
    800003ba:	0000                	unimp
    800003bc:	0000                	unimp
    800003be:	0000                	unimp
    800003c0:	0000                	unimp
    800003c2:	0000                	unimp
    800003c4:	0000                	unimp
    800003c6:	0000                	unimp
    800003c8:	0000                	unimp
    800003ca:	0000                	unimp
    800003cc:	0000                	unimp
    800003ce:	0000                	unimp
    800003d0:	0000                	unimp
    800003d2:	0000                	unimp
    800003d4:	0000                	unimp
    800003d6:	0000                	unimp
    800003d8:	0000                	unimp
    800003da:	0000                	unimp
    800003dc:	0000                	unimp
    800003de:	0000                	unimp
    800003e0:	0000                	unimp
    800003e2:	0000                	unimp
    800003e4:	0000                	unimp
    800003e6:	0000                	unimp
    800003e8:	0000                	unimp
    800003ea:	0000                	unimp
    800003ec:	0000                	unimp
    800003ee:	0000                	unimp
