
poc.elf:     file format elf64-littleriscv


Disassembly of section .text:

0000000080000000 <init>:
    80000000:	0ff0000f          	fence
    80000004:	0ff0000f          	fence
    80000008:	0ff0000f          	fence
    8000000c:	0ff0000f          	fence
    80000010:	0ff0000f          	fence
    80000014:	0ff0000f          	fence
    80000018:	0ff0000f          	fence
    8000001c:	0ff0000f          	fence
    80000020:	0ff0000f          	fence
    80000024:	0ff0000f          	fence
    80000028:	0ff0000f          	fence
    8000002c:	0ff0000f          	fence
    80000030:	0ff0000f          	fence
    80000034:	0ff0000f          	fence
    80000038:	0ff0000f          	fence
    8000003c:	0ff0000f          	fence
    80000040:	0ff0000f          	fence
    80000044:	0ff0000f          	fence
    80000048:	0ff0000f          	fence
    8000004c:	0ff0000f          	fence
    80000050:	0ff0000f          	fence
    80000054:	0ff0000f          	fence
    80000058:	0ff0000f          	fence
    8000005c:	0ff0000f          	fence
    80000060:	0ff0000f          	fence
    80000064:	0ff0000f          	fence
    80000068:	0ff0000f          	fence
    8000006c:	0ff0000f          	fence
    80000070:	0ff0000f          	fence
    80000074:	0ff0000f          	fence
    80000078:	0ff0000f          	fence
    8000007c:	0ff0000f          	fence
    80000080:	0ff0000f          	fence
    80000084:	0ff0000f          	fence
    80000088:	0ff0000f          	fence
    8000008c:	0ff0000f          	fence
    80000090:	0ff0000f          	fence
    80000094:	0ff0000f          	fence
    80000098:	0ff0000f          	fence
    8000009c:	0ff0000f          	fence
    800000a0:	0ff0000f          	fence
    800000a4:	0ff0000f          	fence
    800000a8:	0ff0000f          	fence
    800000ac:	0ff0000f          	fence
    800000b0:	0ff0000f          	fence
    800000b4:	0ff0000f          	fence
    800000b8:	0ff0000f          	fence
    800000bc:	0ff0000f          	fence
    800000c0:	0ff0000f          	fence
    800000c4:	0ff0000f          	fence
    800000c8:	0ff0000f          	fence
    800000cc:	0ff0000f          	fence
    800000d0:	0ff0000f          	fence
    800000d4:	0ff0000f          	fence
    800000d8:	0ff0000f          	fence
    800000dc:	0ff0000f          	fence
    800000e0:	0ff0000f          	fence
    800000e4:	0ff0000f          	fence
    800000e8:	0ff0000f          	fence
    800000ec:	0ff0000f          	fence
    800000f0:	0ff0000f          	fence
    800000f4:	0ff0000f          	fence
    800000f8:	0ff0000f          	fence
    800000fc:	0ff0000f          	fence
    80000100:	0ff0000f          	fence
    80000104:	0ff0000f          	fence
    80000108:	0ff0000f          	fence
    8000010c:	0ff0000f          	fence
    80000110:	0ff0000f          	fence
    80000114:	0ff0000f          	fence
    80000118:	0ff0000f          	fence
    8000011c:	0ff0000f          	fence
    80000120:	0ff0000f          	fence
    80000124:	0ff0000f          	fence
    80000128:	0ff0000f          	fence
    8000012c:	0ff0000f          	fence
    80000130:	0ff0000f          	fence
    80000134:	0ff0000f          	fence
    80000138:	0ff0000f          	fence
    8000013c:	0ff0000f          	fence
    80000140:	0ff0000f          	fence
    80000144:	0ff0000f          	fence
    80000148:	0ff0000f          	fence
    8000014c:	0ff0000f          	fence
    80000150:	0ff0000f          	fence
    80000154:	0ff0000f          	fence
    80000158:	0ff0000f          	fence
    8000015c:	0ff0000f          	fence
    80000160:	0ff0000f          	fence
    80000164:	0ff0000f          	fence
    80000168:	0ff0000f          	fence
    8000016c:	0ff0000f          	fence
    80000170:	0ff0000f          	fence
    80000174:	0ff0000f          	fence
    80000178:	0ff0000f          	fence
    8000017c:	0ff0000f          	fence
    80000180:	0ff0000f          	fence
    80000184:	0ff0000f          	fence
    80000188:	0ff0000f          	fence
    8000018c:	0ff0000f          	fence
    80000190:	0ff0000f          	fence
    80000194:	0ff0000f          	fence
    80000198:	0ff0000f          	fence
    8000019c:	0ff0000f          	fence
    800001a0:	0ff0000f          	fence
    800001a4:	0ff0000f          	fence
    800001a8:	0ff0000f          	fence
    800001ac:	0ff0000f          	fence
    800001b0:	0ff0000f          	fence
    800001b4:	0ff0000f          	fence
    800001b8:	0ff0000f          	fence
    800001bc:	0ff0000f          	fence
    800001c0:	0ff0000f          	fence
    800001c4:	0ff0000f          	fence
    800001c8:	0ff0000f          	fence
    800001cc:	0ff0000f          	fence
    800001d0:	0ff0000f          	fence
    800001d4:	0ff0000f          	fence
    800001d8:	0ff0000f          	fence
    800001dc:	0ff0000f          	fence
    800001e0:	0ff0000f          	fence
    800001e4:	0ff0000f          	fence
    800001e8:	0ff0000f          	fence
    800001ec:	0ff0000f          	fence
    800001f0:	0ff0000f          	fence
    800001f4:	0ff0000f          	fence
    800001f8:	0ff0000f          	fence
    800001fc:	0ff0000f          	fence
    80000200:	00001517          	auipc	a0,0x1
    80000204:	e0050513          	addi	a0,a0,-512 # 80001000 <legit_data>
    80000208:	00053283          	ld	t0,0(a0)
    8000020c:	00001517          	auipc	a0,0x1
    80000210:	df450513          	addi	a0,a0,-524 # 80001000 <legit_data>
    80000214:	13c000ef          	jal	ra,80000350 <target>
    80000218:	138000ef          	jal	ra,80000350 <target>
    8000021c:	134000ef          	jal	ra,80000350 <target>
    80000220:	0ff0000f          	fence

0000000080000224 <attacker>:
    80000224:	00001517          	auipc	a0,0x1
    80000228:	de450513          	addi	a0,a0,-540 # 80001008 <spec_data>
    8000022c:	114000ef          	jal	ra,80000340 <victim>
    80000230:	0ff0000f          	fence
    80000234:	c0001073          	unimp
    80000238:	c0001073          	unimp
    8000023c:	c0001073          	unimp
    80000240:	c0001073          	unimp
    80000244:	c0001073          	unimp
    80000248:	c0001073          	unimp
    8000024c:	c0001073          	unimp
    80000250:	c0001073          	unimp
    80000254:	c0001073          	unimp
    80000258:	c0001073          	unimp
    8000025c:	c0001073          	unimp
    80000260:	c0001073          	unimp
    80000264:	c0001073          	unimp
    80000268:	c0001073          	unimp
    8000026c:	c0001073          	unimp
    80000270:	c0001073          	unimp
    80000274:	c0001073          	unimp
    80000278:	c0001073          	unimp
    8000027c:	c0001073          	unimp
    80000280:	c0001073          	unimp
    80000284:	c0001073          	unimp
    80000288:	c0001073          	unimp
    8000028c:	c0001073          	unimp
    80000290:	c0001073          	unimp
    80000294:	c0001073          	unimp
    80000298:	c0001073          	unimp
    8000029c:	c0001073          	unimp
    800002a0:	c0001073          	unimp
    800002a4:	c0001073          	unimp
    800002a8:	c0001073          	unimp
    800002ac:	c0001073          	unimp
    800002b0:	c0001073          	unimp
    800002b4:	c0001073          	unimp
    800002b8:	c0001073          	unimp
    800002bc:	c0001073          	unimp
    800002c0:	c0001073          	unimp
    800002c4:	c0001073          	unimp
    800002c8:	c0001073          	unimp
    800002cc:	c0001073          	unimp
    800002d0:	c0001073          	unimp
    800002d4:	c0001073          	unimp
    800002d8:	c0001073          	unimp
    800002dc:	c0001073          	unimp
    800002e0:	c0001073          	unimp
    800002e4:	c0001073          	unimp
    800002e8:	c0001073          	unimp
    800002ec:	c0001073          	unimp
    800002f0:	c0001073          	unimp
    800002f4:	c0001073          	unimp
    800002f8:	c0001073          	unimp
    800002fc:	c0001073          	unimp
    80000300:	c0001073          	unimp
    80000304:	c0001073          	unimp
    80000308:	c0001073          	unimp
    8000030c:	c0001073          	unimp
    80000310:	c0001073          	unimp
    80000314:	c0001073          	unimp
    80000318:	c0001073          	unimp
    8000031c:	c0001073          	unimp
    80000320:	c0001073          	unimp
    80000324:	c0001073          	unimp
    80000328:	c0001073          	unimp
    8000032c:	c0001073          	unimp
    80000330:	c0001073          	unimp
    80000334:	00000013          	nop
    80000338:	00000013          	nop
    8000033c:	00000013          	nop

0000000080000340 <victim>:
    80000340:	00000097          	auipc	ra,0x0
    80000344:	00000013          	nop
    80000348:	00000013          	nop
    8000034c:	00000013          	nop

0000000080000350 <target>:
    80000350:	00100313          	li	t1,1
    80000354:	00200293          	li	t0,2
    80000358:	026282b3          	mul	t0,t0,t1
    8000035c:	026282b3          	mul	t0,t0,t1
    80000360:	026282b3          	mul	t0,t0,t1
    80000364:	026282b3          	mul	t0,t0,t1
    80000368:	026282b3          	mul	t0,t0,t1
    8000036c:	026282b3          	mul	t0,t0,t1
    80000370:	026282b3          	mul	t0,t0,t1
    80000374:	026282b3          	mul	t0,t0,t1
    80000378:	00000013          	nop
    8000037c:	00000013          	nop
    80000380:	10028463          	beqz	t0,80000488 <speculative>
    80000384:	00008067          	ret
    80000388:	c0001073          	unimp
    8000038c:	c0001073          	unimp
    80000390:	c0001073          	unimp
    80000394:	c0001073          	unimp
    80000398:	c0001073          	unimp
    8000039c:	c0001073          	unimp
    800003a0:	c0001073          	unimp
    800003a4:	c0001073          	unimp
    800003a8:	c0001073          	unimp
    800003ac:	c0001073          	unimp
    800003b0:	c0001073          	unimp
    800003b4:	c0001073          	unimp
    800003b8:	c0001073          	unimp
    800003bc:	c0001073          	unimp
    800003c0:	c0001073          	unimp
    800003c4:	c0001073          	unimp
    800003c8:	c0001073          	unimp
    800003cc:	c0001073          	unimp
    800003d0:	c0001073          	unimp
    800003d4:	c0001073          	unimp
    800003d8:	c0001073          	unimp
    800003dc:	c0001073          	unimp
    800003e0:	c0001073          	unimp
    800003e4:	c0001073          	unimp
    800003e8:	c0001073          	unimp
    800003ec:	c0001073          	unimp
    800003f0:	c0001073          	unimp
    800003f4:	c0001073          	unimp
    800003f8:	c0001073          	unimp
    800003fc:	c0001073          	unimp
    80000400:	c0001073          	unimp
    80000404:	c0001073          	unimp
    80000408:	c0001073          	unimp
    8000040c:	c0001073          	unimp
    80000410:	c0001073          	unimp
    80000414:	c0001073          	unimp
    80000418:	c0001073          	unimp
    8000041c:	c0001073          	unimp
    80000420:	c0001073          	unimp
    80000424:	c0001073          	unimp
    80000428:	c0001073          	unimp
    8000042c:	c0001073          	unimp
    80000430:	c0001073          	unimp
    80000434:	c0001073          	unimp
    80000438:	c0001073          	unimp
    8000043c:	c0001073          	unimp
    80000440:	c0001073          	unimp
    80000444:	c0001073          	unimp
    80000448:	c0001073          	unimp
    8000044c:	c0001073          	unimp
    80000450:	c0001073          	unimp
    80000454:	c0001073          	unimp
    80000458:	c0001073          	unimp
    8000045c:	c0001073          	unimp
    80000460:	c0001073          	unimp
    80000464:	c0001073          	unimp
    80000468:	c0001073          	unimp
    8000046c:	c0001073          	unimp
    80000470:	c0001073          	unimp
    80000474:	c0001073          	unimp
    80000478:	c0001073          	unimp
    8000047c:	c0001073          	unimp
    80000480:	c0001073          	unimp
    80000484:	c0001073          	unimp

0000000080000488 <speculative>:
    80000488:	00053e83          	ld	t4,0(a0)
    8000048c:	00008067          	ret
    80000490:	c0001073          	unimp
    80000494:	c0001073          	unimp
    80000498:	c0001073          	unimp
    8000049c:	c0001073          	unimp
    800004a0:	c0001073          	unimp
    800004a4:	c0001073          	unimp
    800004a8:	c0001073          	unimp
    800004ac:	c0001073          	unimp
    800004b0:	c0001073          	unimp
    800004b4:	c0001073          	unimp
    800004b8:	c0001073          	unimp
    800004bc:	c0001073          	unimp
    800004c0:	c0001073          	unimp
    800004c4:	c0001073          	unimp
    800004c8:	c0001073          	unimp
    800004cc:	c0001073          	unimp
    800004d0:	c0001073          	unimp
    800004d4:	c0001073          	unimp
    800004d8:	c0001073          	unimp
    800004dc:	c0001073          	unimp
    800004e0:	c0001073          	unimp
    800004e4:	c0001073          	unimp
    800004e8:	c0001073          	unimp
    800004ec:	c0001073          	unimp
    800004f0:	c0001073          	unimp
    800004f4:	c0001073          	unimp
    800004f8:	c0001073          	unimp
    800004fc:	c0001073          	unimp
    80000500:	c0001073          	unimp
    80000504:	c0001073          	unimp
    80000508:	c0001073          	unimp
    8000050c:	c0001073          	unimp
    80000510:	c0001073          	unimp
    80000514:	c0001073          	unimp
    80000518:	c0001073          	unimp
    8000051c:	c0001073          	unimp
    80000520:	c0001073          	unimp
    80000524:	c0001073          	unimp
    80000528:	c0001073          	unimp
    8000052c:	c0001073          	unimp
    80000530:	c0001073          	unimp
    80000534:	c0001073          	unimp
    80000538:	c0001073          	unimp
    8000053c:	c0001073          	unimp
    80000540:	c0001073          	unimp
    80000544:	c0001073          	unimp
    80000548:	c0001073          	unimp
    8000054c:	c0001073          	unimp
    80000550:	c0001073          	unimp
    80000554:	c0001073          	unimp
    80000558:	c0001073          	unimp
    8000055c:	c0001073          	unimp
    80000560:	c0001073          	unimp
    80000564:	c0001073          	unimp
    80000568:	c0001073          	unimp
    8000056c:	c0001073          	unimp
    80000570:	c0001073          	unimp
    80000574:	c0001073          	unimp
    80000578:	c0001073          	unimp
    8000057c:	c0001073          	unimp
    80000580:	c0001073          	unimp
    80000584:	c0001073          	unimp
    80000588:	c0001073          	unimp
    8000058c:	c0001073          	unimp
    80000590:	c0001073          	unimp
    80000594:	c0001073          	unimp
    80000598:	c0001073          	unimp
    8000059c:	c0001073          	unimp
    800005a0:	c0001073          	unimp
    800005a4:	c0001073          	unimp
    800005a8:	c0001073          	unimp
    800005ac:	c0001073          	unimp
    800005b0:	c0001073          	unimp
    800005b4:	c0001073          	unimp
    800005b8:	c0001073          	unimp
    800005bc:	c0001073          	unimp
    800005c0:	c0001073          	unimp
    800005c4:	c0001073          	unimp
    800005c8:	c0001073          	unimp
    800005cc:	c0001073          	unimp
    800005d0:	c0001073          	unimp
    800005d4:	c0001073          	unimp
    800005d8:	c0001073          	unimp
    800005dc:	c0001073          	unimp
    800005e0:	c0001073          	unimp
    800005e4:	c0001073          	unimp
    800005e8:	c0001073          	unimp
    800005ec:	c0001073          	unimp
    800005f0:	c0001073          	unimp
    800005f4:	c0001073          	unimp
    800005f8:	c0001073          	unimp
    800005fc:	c0001073          	unimp
    80000600:	c0001073          	unimp
    80000604:	c0001073          	unimp
    80000608:	c0001073          	unimp
    8000060c:	c0001073          	unimp
    80000610:	c0001073          	unimp
    80000614:	c0001073          	unimp
    80000618:	c0001073          	unimp
    8000061c:	c0001073          	unimp
    80000620:	c0001073          	unimp
    80000624:	c0001073          	unimp
    80000628:	c0001073          	unimp
    8000062c:	c0001073          	unimp
    80000630:	c0001073          	unimp
    80000634:	c0001073          	unimp
    80000638:	c0001073          	unimp
    8000063c:	c0001073          	unimp
    80000640:	c0001073          	unimp
    80000644:	c0001073          	unimp
    80000648:	c0001073          	unimp
    8000064c:	c0001073          	unimp
    80000650:	c0001073          	unimp
    80000654:	c0001073          	unimp
    80000658:	c0001073          	unimp
    8000065c:	c0001073          	unimp
    80000660:	c0001073          	unimp
    80000664:	c0001073          	unimp
    80000668:	c0001073          	unimp
    8000066c:	c0001073          	unimp
    80000670:	c0001073          	unimp
    80000674:	c0001073          	unimp
    80000678:	c0001073          	unimp
    8000067c:	c0001073          	unimp
    80000680:	c0001073          	unimp
    80000684:	c0001073          	unimp
    80000688:	c0001073          	unimp
    8000068c:	c0001073          	unimp
    80000690:	0000                	unimp
    80000692:	0000                	unimp
    80000694:	0000                	unimp
    80000696:	0000                	unimp
    80000698:	0000                	unimp
    8000069a:	0000                	unimp
